target datalayout = "e-m:e-p270:32:32-p271:32:32-p272:64:64-i64:64-i128:128-f80:128-n8:16:32:64-S128"
target triple = "x86_64-pc-linux-gnu"

%struct.Vec_Int_t_ = type { i32, i32, ptr }
%struct.Abc_ManRst_t_ = type { ptr, i32, i32, i32, i32, ptr, ptr, ptr, ptr, ptr, ptr, ptr, ptr, ptr, ptr, ptr, i32, i32, i32, i32, i32, i32, i32, i32, i32, i32, i32, i32, i32 }
%struct.Vec_Ptr_t_ = type { i32, i32, ptr }
%struct.Dec_Graph_t_ = type { i32, i32, i32, i32, ptr, %struct.Dec_Edge_t_ }
%struct.Dec_Edge_t_ = type { i32 }
%struct.Dec_Node_t_ = type { %struct.Dec_Edge_t_, %struct.Dec_Edge_t_, %union.anon.1, i32 }
%union.anon.1 = type { ptr }

; Function Attrs: nounwind uwtable
define internal ptr @Dec_GraphAppendNode(ptr noundef %0) #0 {
  %2 = alloca ptr, align 8
  %3 = alloca ptr, align 8
  store ptr %0, ptr %2, align 8
  %4 = load ptr, ptr %2, align 8
  %5 = getelementptr inbounds %struct.Dec_Graph_t_, ptr %4, i32 0, i32 2
  %6 = load i32, ptr %5, align 8
  %7 = load ptr, ptr %2, align 8
  %8 = getelementptr inbounds %struct.Dec_Graph_t_, ptr %7, i32 0, i32 3
  %9 = load i32, ptr %8, align 4
  %10 = icmp eq i32 %6, %9
  br i1 %10, label %11, label %45

11:                                               ; preds = %1
  %12 = load ptr, ptr %2, align 8
  %13 = getelementptr inbounds %struct.Dec_Graph_t_, ptr %12, i32 0, i32 4
  %14 = load ptr, ptr %13, align 8
  %15 = icmp ne ptr %14, null
  br i1 %15, label %16, label %27

16:                                               ; preds = %11
  %17 = load ptr, ptr %2, align 8
  %18 = getelementptr inbounds %struct.Dec_Graph_t_, ptr %17, i32 0, i32 4
  %19 = load ptr, ptr %18, align 8
  %20 = load ptr, ptr %2, align 8
  %21 = getelementptr inbounds %struct.Dec_Graph_t_, ptr %20, i32 0, i32 3
  %22 = load i32, ptr %21, align 4
  %23 = mul nsw i32 2, %22
  %24 = sext i32 %23 to i64
  %25 = mul i64 24, %24
  %26 = call ptr @realloc(ptr noundef %19, i64 noundef %25) #11
  br label %35

27:                                               ; preds = %11
  %28 = load ptr, ptr %2, align 8
  %29 = getelementptr inbounds %struct.Dec_Graph_t_, ptr %28, i32 0, i32 3
  %30 = load i32, ptr %29, align 4
  %31 = mul nsw i32 2, %30
  %32 = sext i32 %31 to i64
  %33 = mul i64 24, %32
  %34 = call noalias ptr @malloc(i64 noundef %33) #9
  br label %35

35:                                               ; preds = %27, %16
  %36 = phi ptr [ %26, %16 ], [ %34, %27 ]
  %37 = load ptr, ptr %2, align 8
  %38 = getelementptr inbounds %struct.Dec_Graph_t_, ptr %37, i32 0, i32 4
  store ptr %36, ptr %38, align 8
  %39 = load ptr, ptr %2, align 8
  %40 = getelementptr inbounds %struct.Dec_Graph_t_, ptr %39, i32 0, i32 3
  %41 = load i32, ptr %40, align 4
  %42 = mul nsw i32 2, %41
  %43 = load ptr, ptr %2, align 8
  %44 = getelementptr inbounds %struct.Dec_Graph_t_, ptr %43, i32 0, i32 3
  store i32 %42, ptr %44, align 4
  br label %45

45:                                               ; preds = %35, %1
  %46 = load ptr, ptr %2, align 8
  %47 = getelementptr inbounds %struct.Dec_Graph_t_, ptr %46, i32 0, i32 4
  %48 = load ptr, ptr %47, align 8
  %49 = load ptr, ptr %2, align 8
  %50 = getelementptr inbounds %struct.Dec_Graph_t_, ptr %49, i32 0, i32 2
  %51 = load i32, ptr %50, align 8
  %52 = add nsw i32 %51, 1
  store i32 %52, ptr %50, align 8
  %53 = sext i32 %51 to i64
  %54 = getelementptr inbounds %struct.Dec_Node_t_, ptr %48, i64 %53
  store ptr %54, ptr %3, align 8
  %55 = load ptr, ptr %3, align 8
  call void @llvm.memset.p0.i64(ptr align 8 %55, i8 0, i64 24, i1 false)
  %56 = load ptr, ptr %3, align 8
  ret ptr %56
}

; Function Attrs: nounwind uwtable
define internal i32 @Dec_EdgeCreate(i32 noundef %0, i32 noundef %1) #0 {
  %3 = alloca %struct.Dec_Edge_t_, align 4
  %4 = alloca i32, align 4
  %5 = alloca i32, align 4
  store i32 %0, ptr %4, align 4
  store i32 %1, ptr %5, align 4
  %6 = load i32, ptr %5, align 4
  %7 = load i32, ptr %3, align 4
  %8 = and i32 %6, 1
  %9 = and i32 %7, -2
  %10 = or i32 %9, %8
  store i32 %10, ptr %3, align 4
  %11 = load i32, ptr %4, align 4
  %12 = load i32, ptr %3, align 4
  %13 = and i32 %11, 1073741823
  %14 = shl i32 %13, 1
  %15 = and i32 %12, -2147483647
  %16 = or i32 %15, %14
  store i32 %16, ptr %3, align 4
  %17 = getelementptr inbounds %struct.Dec_Edge_t_, ptr %3, i32 0, i32 0
  %18 = load i32, ptr %17, align 4
  ret i32 %18
}

; Function Attrs: nounwind uwtable
define internal void @Dec_GraphFree(ptr noundef %0) #0 {
  %2 = alloca ptr, align 8
  store ptr %0, ptr %2, align 8
  %3 = load ptr, ptr %2, align 8
  %4 = getelementptr inbounds %struct.Dec_Graph_t_, ptr %3, i32 0, i32 4
  %5 = load ptr, ptr %4, align 8
  %6 = icmp ne ptr %5, null
  br i1 %6, label %7, label %13

7:                                                ; preds = %1
  %8 = load ptr, ptr %2, align 8
  %9 = getelementptr inbounds %struct.Dec_Graph_t_, ptr %8, i32 0, i32 4
  %10 = load ptr, ptr %9, align 8
  call void @free(ptr noundef %10) #10
  %11 = load ptr, ptr %2, align 8
  %12 = getelementptr inbounds %struct.Dec_Graph_t_, ptr %11, i32 0, i32 4
  store ptr null, ptr %12, align 8
  br label %14

13:                                               ; preds = %1
  br label %14

14:                                               ; preds = %13, %7
  %15 = load ptr, ptr %2, align 8
  %16 = icmp ne ptr %15, null
  br i1 %16, label %17, label %19

17:                                               ; preds = %14
  %18 = load ptr, ptr %2, align 8
  call void @free(ptr noundef %18) #10
  store ptr null, ptr %2, align 8
  br label %20

19:                                               ; preds = %14
  br label %20

20:                                               ; preds = %19, %17
  ret void
}

; Function Attrs: nounwind uwtable
define i32 @Abc_NodeCheckFull(ptr noundef %0, ptr noundef %1) #0 {
  %3 = alloca ptr, align 8
  %4 = alloca ptr, align 8
  store ptr %0, ptr %3, align 8
  store ptr %1, ptr %4, align 8
  ret i32 1
}

; Function Attrs: nounwind uwtable
define internal void @Dec_GraphSetRoot(ptr noundef %0, i32 %1) #0 {
  %3 = alloca %struct.Dec_Edge_t_, align 4
  %4 = alloca ptr, align 8
  %5 = getelementptr inbounds %struct.Dec_Edge_t_, ptr %3, i32 0, i32 0
  store i32 %1, ptr %5, align 4
  store ptr %0, ptr %4, align 8
  %6 = load ptr, ptr %4, align 8
  %7 = getelementptr inbounds %struct.Dec_Graph_t_, ptr %6, i32 0, i32 5
  call void @llvm.memcpy.p0.p0.i64(ptr align 8 %7, ptr align 4 %3, i64 4, i1 false)
  ret void
}

; Function Attrs: nounwind uwtable
define internal i32 @Dec_GraphAddNodeAnd(ptr noundef %0, i32 %1, i32 %2) #0 {
  %4 = alloca %struct.Dec_Edge_t_, align 4
  %5 = alloca %struct.Dec_Edge_t_, align 4
  %6 = alloca %struct.Dec_Edge_t_, align 4
  %7 = alloca ptr, align 8
  %8 = alloca ptr, align 8
  %9 = getelementptr inbounds %struct.Dec_Edge_t_, ptr %5, i32 0, i32 0
  store i32 %1, ptr %9, align 4
  %10 = getelementptr inbounds %struct.Dec_Edge_t_, ptr %6, i32 0, i32 0
  store i32 %2, ptr %10, align 4
  store ptr %0, ptr %7, align 8
  %11 = load ptr, ptr %7, align 8
  %12 = call ptr @Dec_GraphAppendNode(ptr noundef %11)
  store ptr %12, ptr %8, align 8
  %13 = load ptr, ptr %8, align 8
  %14 = getelementptr inbounds %struct.Dec_Node_t_, ptr %13, i32 0, i32 0
  call void @llvm.memcpy.p0.p0.i64(ptr align 8 %14, ptr align 4 %5, i64 4, i1 false)
  %15 = load ptr, ptr %8, align 8
  %16 = getelementptr inbounds %struct.Dec_Node_t_, ptr %15, i32 0, i32 1
  call void @llvm.memcpy.p0.p0.i64(ptr align 4 %16, ptr align 4 %6, i64 4, i1 false)
  %17 = load i32, ptr %5, align 4
  %18 = and i32 %17, 1
  %19 = load ptr, ptr %8, align 8
  %20 = getelementptr inbounds %struct.Dec_Node_t_, ptr %19, i32 0, i32 3
  %21 = load i32, ptr %20, align 8
  %22 = and i32 %18, 1
  %23 = shl i32 %22, 15
  %24 = and i32 %21, -32769
  %25 = or i32 %24, %23
  store i32 %25, ptr %20, align 8
  %26 = load i32, ptr %6, align 4
  %27 = and i32 %26, 1
  %28 = load ptr, ptr %8, align 8
  %29 = getelementptr inbounds %struct.Dec_Node_t_, ptr %28, i32 0, i32 3
  %30 = load i32, ptr %29, align 8
  %31 = and i32 %27, 1
  %32 = shl i32 %31, 16
  %33 = and i32 %30, -65537
  %34 = or i32 %33, %32
  store i32 %34, ptr %29, align 8
  %35 = load ptr, ptr %7, align 8
  %36 = getelementptr inbounds %struct.Dec_Graph_t_, ptr %35, i32 0, i32 2
  %37 = load i32, ptr %36, align 8
  %38 = sub nsw i32 %37, 1
  %39 = call i32 @Dec_EdgeCreate(i32 noundef %38, i32 noundef 0)
  %40 = getelementptr inbounds %struct.Dec_Edge_t_, ptr %4, i32 0, i32 0
  store i32 %39, ptr %40, align 4
  %41 = getelementptr inbounds %struct.Dec_Edge_t_, ptr %4, i32 0, i32 0
  %42 = load i32, ptr %41, align 4
  ret i32 %42
}

; Function Attrs: nounwind uwtable
define internal ptr @Dec_GraphNode(ptr noundef %0, i32 noundef %1) #0 {
  %3 = alloca ptr, align 8
  %4 = alloca i32, align 4
  store ptr %0, ptr %3, align 8
  store i32 %1, ptr %4, align 4
  %5 = load ptr, ptr %3, align 8
  %6 = getelementptr inbounds %struct.Dec_Graph_t_, ptr %5, i32 0, i32 4
  %7 = load ptr, ptr %6, align 8
  %8 = load i32, ptr %4, align 4
  %9 = sext i32 %8 to i64
  %10 = getelementptr inbounds %struct.Dec_Node_t_, ptr %7, i64 %9
  ret ptr %10
}

; Function Attrs: nounwind uwtable
define internal ptr @Vec_PtrEntry(ptr noundef %0, i32 noundef %1) #0 {
  %3 = alloca ptr, align 8
  %4 = alloca i32, align 4
  store ptr %0, ptr %3, align 8
  store i32 %1, ptr %4, align 4
  %5 = load ptr, ptr %3, align 8
  %6 = getelementptr inbounds %struct.Vec_Ptr_t_, ptr %5, i32 0, i32 2
  %7 = load ptr, ptr %6, align 8
  %8 = load i32, ptr %4, align 4
  %9 = sext i32 %8 to i64
  %10 = getelementptr inbounds ptr, ptr %7, i64 %9
  %11 = load ptr, ptr %10, align 8
  ret ptr %11
}

; Function Attrs: nounwind uwtable
define internal ptr @Dec_GraphCreate(i32 noundef %0) #0 {
  %2 = alloca i32, align 4
  %3 = alloca ptr, align 8
  store i32 %0, ptr %2, align 4
  %4 = call noalias ptr @malloc(i64 noundef 32) #9
  store ptr %4, ptr %3, align 8
  %5 = load ptr, ptr %3, align 8
  call void @llvm.memset.p0.i64(ptr align 8 %5, i8 0, i64 32, i1 false)
  %6 = load i32, ptr %2, align 4
  %7 = load ptr, ptr %3, align 8
  %8 = getelementptr inbounds %struct.Dec_Graph_t_, ptr %7, i32 0, i32 1
  store i32 %6, ptr %8, align 4
  %9 = load i32, ptr %2, align 4
  %10 = load ptr, ptr %3, align 8
  %11 = getelementptr inbounds %struct.Dec_Graph_t_, ptr %10, i32 0, i32 2
  store i32 %9, ptr %11, align 8
  %12 = load i32, ptr %2, align 4
  %13 = mul nsw i32 2, %12
  %14 = add nsw i32 %13, 50
  %15 = load ptr, ptr %3, align 8
  %16 = getelementptr inbounds %struct.Dec_Graph_t_, ptr %15, i32 0, i32 3
  store i32 %14, ptr %16, align 4
  %17 = load ptr, ptr %3, align 8
  %18 = getelementptr inbounds %struct.Dec_Graph_t_, ptr %17, i32 0, i32 3
  %19 = load i32, ptr %18, align 4
  %20 = sext i32 %19 to i64
  %21 = mul i64 24, %20
  %22 = call noalias ptr @malloc(i64 noundef %21) #9
  %23 = load ptr, ptr %3, align 8
  %24 = getelementptr inbounds %struct.Dec_Graph_t_, ptr %23, i32 0, i32 4
  store ptr %22, ptr %24, align 8
  %25 = load ptr, ptr %3, align 8
  %26 = getelementptr inbounds %struct.Dec_Graph_t_, ptr %25, i32 0, i32 4
  %27 = load ptr, ptr %26, align 8
  %28 = load ptr, ptr %3, align 8
  %29 = getelementptr inbounds %struct.Dec_Graph_t_, ptr %28, i32 0, i32 2
  %30 = load i32, ptr %29, align 8
  %31 = sext i32 %30 to i64
  %32 = mul i64 24, %31
  call void @llvm.memset.p0.i64(ptr align 8 %27, i8 0, i64 %32, i1 false)
  %33 = load ptr, ptr %3, align 8
  ret ptr %33
}

; Function Attrs: nounwind uwtable
define internal i32 @Dec_IntToEdge(i32 noundef %0) #0 {
  %2 = alloca %struct.Dec_Edge_t_, align 4
  %3 = alloca i32, align 4
  store i32 %0, ptr %3, align 4
  %4 = load i32, ptr %3, align 4
  %5 = lshr i32 %4, 1
  %6 = load i32, ptr %3, align 4
  %7 = and i32 %6, 1
  %8 = call i32 @Dec_EdgeCreate(i32 noundef %5, i32 noundef %7)
  %9 = getelementptr inbounds %struct.Dec_Edge_t_, ptr %2, i32 0, i32 0
  store i32 %8, ptr %9, align 4
  %10 = getelementptr inbounds %struct.Dec_Edge_t_, ptr %2, i32 0, i32 0
  %11 = load i32, ptr %10, align 4
  ret i32 %11
}

; Function Attrs: nounwind uwtable
define internal i32 @Vec_IntEntryLast(ptr noundef %0) #0 {
  %2 = alloca ptr, align 8
  store ptr %0, ptr %2, align 8
  %3 = load ptr, ptr %2, align 8
  %4 = getelementptr inbounds %struct.Vec_Int_t_, ptr %3, i32 0, i32 2
  %5 = load ptr, ptr %4, align 8
  %6 = load ptr, ptr %2, align 8
  %7 = getelementptr inbounds %struct.Vec_Int_t_, ptr %6, i32 0, i32 1
  %8 = load i32, ptr %7, align 4
  %9 = sub nsw i32 %8, 1
  %10 = sext i32 %9 to i64
  %11 = getelementptr inbounds i32, ptr %5, i64 %10
  %12 = load i32, ptr %11, align 4
  ret i32 %12
}

; Function Attrs: nounwind uwtable
define ptr @Abc_NodeMffcSingleNode(ptr noundef %0, ptr noundef %1, i32 noundef %2, ptr noundef %3) #0 {
  %5 = alloca ptr, align 8
  %6 = alloca ptr, align 8
  %7 = alloca ptr, align 8
  %8 = alloca i32, align 4
  %9 = alloca ptr, align 8
  %10 = alloca ptr, align 8
  %11 = alloca %struct.Dec_Edge_t_, align 4
  %12 = alloca %struct.Dec_Edge_t_, align 4
  %13 = alloca %struct.Dec_Edge_t_, align 4
  %14 = alloca i32, align 4
  %15 = alloca i32, align 4
  %16 = alloca i32, align 4
  %17 = alloca %struct.Dec_Edge_t_, align 4
  %18 = alloca %struct.Dec_Edge_t_, align 4
  %19 = alloca %struct.Dec_Edge_t_, align 4
  store ptr %0, ptr %6, align 8
  store ptr %1, ptr %7, align 8
  store i32 %2, ptr %8, align 4
  store ptr %3, ptr %9, align 8
  %20 = load ptr, ptr %7, align 8
  %21 = call i32 @Vec_IntEntryLast(ptr noundef %20)
  store i32 %21, ptr %14, align 4
  store i32 0, ptr %15, align 4
  br label %22

22:                                               ; preds = %121, %4
  %23 = load i32, ptr %15, align 4
  %24 = load ptr, ptr %9, align 8
  %25 = getelementptr inbounds %struct.Vec_Int_t_, ptr %24, i32 0, i32 1
  %26 = load i32, ptr %25, align 4
  %27 = icmp slt i32 %23, %26
  br i1 %27, label %28, label %124

28:                                               ; preds = %22
  %29 = load i32, ptr %15, align 4
  %30 = add nsw i32 %29, 1
  store i32 %30, ptr %16, align 4
  br label %31

31:                                               ; preds = %117, %28
  %32 = load i32, ptr %16, align 4
  %33 = load ptr, ptr %9, align 8
  %34 = getelementptr inbounds %struct.Vec_Int_t_, ptr %33, i32 0, i32 1
  %35 = load i32, ptr %34, align 4
  %36 = icmp slt i32 %32, %35
  br i1 %36, label %37, label %120

37:                                               ; preds = %31
  %38 = load i32, ptr %14, align 4
  %39 = xor i32 %38, -1
  %40 = load ptr, ptr %9, align 8
  %41 = getelementptr inbounds %struct.Vec_Int_t_, ptr %40, i32 0, i32 2
  %42 = load ptr, ptr %41, align 8
  %43 = load i32, ptr %15, align 4
  %44 = sext i32 %43 to i64
  %45 = getelementptr inbounds i32, ptr %42, i64 %44
  %46 = load i32, ptr %45, align 4
  %47 = load ptr, ptr %9, align 8
  %48 = getelementptr inbounds %struct.Vec_Int_t_, ptr %47, i32 0, i32 2
  %49 = load ptr, ptr %48, align 8
  %50 = load i32, ptr %16, align 4
  %51 = sext i32 %50 to i64
  %52 = getelementptr inbounds i32, ptr %49, i64 %51
  %53 = load i32, ptr %52, align 4
  %54 = or i32 %46, %53
  %55 = icmp eq i32 %39, %54
  br i1 %55, label %56, label %116

56:                                               ; preds = %37
  %57 = load ptr, ptr %9, align 8
  %58 = getelementptr inbounds %struct.Vec_Int_t_, ptr %57, i32 0, i32 2
  %59 = load ptr, ptr %58, align 8
  %60 = load i32, ptr %15, align 4
  %61 = sext i32 %60 to i64
  %62 = getelementptr inbounds i32, ptr %59, i64 %61
  %63 = load i32, ptr %62, align 4
  %64 = xor i32 %63, 1
  %65 = call i32 @Dec_IntToEdge(i32 noundef %64)
  %66 = getelementptr inbounds %struct.Dec_Edge_t_, ptr %17, i32 0, i32 0
  store i32 %65, ptr %66, align 4
  call void @llvm.memcpy.p0.p0.i64(ptr align 4 %11, ptr align 4 %17, i64 4, i1 false)
  %67 = load ptr, ptr %9, align 8
  %68 = getelementptr inbounds %struct.Vec_Int_t_, ptr %67, i32 0, i32 2
  %69 = load ptr, ptr %68, align 8
  %70 = load i32, ptr %16, align 4
  %71 = sext i32 %70 to i64
  %72 = getelementptr inbounds i32, ptr %69, i64 %71
  %73 = load i32, ptr %72, align 4
  %74 = xor i32 %73, 1
  %75 = call i32 @Dec_IntToEdge(i32 noundef %74)
  %76 = getelementptr inbounds %struct.Dec_Edge_t_, ptr %18, i32 0, i32 0
  store i32 %75, ptr %76, align 4
  call void @llvm.memcpy.p0.p0.i64(ptr align 4 %12, ptr align 4 %18, i64 4, i1 false)
  %77 = call ptr @Dec_GraphCreate(i32 noundef 2)
  store ptr %77, ptr %10, align 8
  %78 = load ptr, ptr %6, align 8
  %79 = getelementptr inbounds %struct.Abc_ManRst_t_, ptr %78, i32 0, i32 9
  %80 = load ptr, ptr %79, align 8
  %81 = load i32, ptr %11, align 4
  %82 = lshr i32 %81, 1
  %83 = and i32 %82, 1073741823
  %84 = call ptr @Vec_PtrEntry(ptr noundef %80, i32 noundef %83)
  %85 = load ptr, ptr %10, align 8
  %86 = call ptr @Dec_GraphNode(ptr noundef %85, i32 noundef 0)
  %87 = getelementptr inbounds %struct.Dec_Node_t_, ptr %86, i32 0, i32 2
  store ptr %84, ptr %87, align 8
  %88 = load ptr, ptr %6, align 8
  %89 = getelementptr inbounds %struct.Abc_ManRst_t_, ptr %88, i32 0, i32 9
  %90 = load ptr, ptr %89, align 8
  %91 = load i32, ptr %12, align 4
  %92 = lshr i32 %91, 1
  %93 = and i32 %92, 1073741823
  %94 = call ptr @Vec_PtrEntry(ptr noundef %90, i32 noundef %93)
  %95 = load ptr, ptr %10, align 8
  %96 = call ptr @Dec_GraphNode(ptr noundef %95, i32 noundef 1)
  %97 = getelementptr inbounds %struct.Dec_Node_t_, ptr %96, i32 0, i32 2
  store ptr %94, ptr %97, align 8
  %98 = load ptr, ptr %10, align 8
  %99 = getelementptr inbounds %struct.Dec_Edge_t_, ptr %11, i32 0, i32 0
  %100 = load i32, ptr %99, align 4
  %101 = getelementptr inbounds %struct.Dec_Edge_t_, ptr %12, i32 0, i32 0
  %102 = load i32, ptr %101, align 4
  %103 = call i32 @Dec_GraphAddNodeAnd(ptr noundef %98, i32 %100, i32 %102)
  %104 = getelementptr inbounds %struct.Dec_Edge_t_, ptr %19, i32 0, i32 0
  store i32 %103, ptr %104, align 4
  call void @llvm.memcpy.p0.p0.i64(ptr align 4 %13, ptr align 4 %19, i64 4, i1 false)
  %105 = load ptr, ptr %10, align 8
  %106 = getelementptr inbounds %struct.Dec_Edge_t_, ptr %13, i32 0, i32 0
  %107 = load i32, ptr %106, align 4
  call void @Dec_GraphSetRoot(ptr noundef %105, i32 %107)
  %108 = load ptr, ptr %6, align 8
  %109 = load ptr, ptr %10, align 8
  %110 = call i32 @Abc_NodeCheckFull(ptr noundef %108, ptr noundef %109)
  %111 = icmp ne i32 %110, 0
  br i1 %111, label %112, label %114

112:                                              ; preds = %56
  %113 = load ptr, ptr %10, align 8
  store ptr %113, ptr %5, align 8
  br label %125

114:                                              ; preds = %56
  %115 = load ptr, ptr %10, align 8
  call void @Dec_GraphFree(ptr noundef %115)
  br label %116

116:                                              ; preds = %114, %37
  br label %117

117:                                              ; preds = %116
  %118 = load i32, ptr %16, align 4
  %119 = add nsw i32 %118, 1
  store i32 %119, ptr %16, align 4
  br label %31, !llvm.loop !29

120:                                              ; preds = %31
  br label %121

121:                                              ; preds = %120
  %122 = load i32, ptr %15, align 4
  %123 = add nsw i32 %122, 1
  store i32 %123, ptr %15, align 4
  br label %22, !llvm.loop !30

124:                                              ; preds = %22
  store ptr null, ptr %5, align 8
  br label %125

125:                                              ; preds = %124, %112
  %126 = load ptr, ptr %5, align 8
  ret ptr %126
}