; Function Attrs: nofree nounwind memory(readwrite, argmem: read) uwtable
define noalias noundef ptr @Abc_NodeMffcSingleNode(ptr noundef readonly captures(none) %0, ptr noundef readonly captures(none) %1, i32 %2, ptr noundef readonly captures(none) %3) local_unnamed_addr #7 {
  %5 = getelementptr i8, ptr %1, i64 4
  %.val39 = load i32, ptr %5, align 4
  %6 = getelementptr i8, ptr %1, i64 8
  %.val40 = load ptr, ptr %6, align 8
  %7 = sext i32 %.val39 to i64
  %8 = getelementptr i32, ptr %.val40, i64 %7
  %9 = getelementptr i8, ptr %8, i64 -4
  %10 = load i32, ptr %9, align 4
  %11 = getelementptr inbounds nuw i8, ptr %3, i64 4
  %12 = load i32, ptr %11, align 4
  %13 = icmp sgt i32 %12, 0
  br i1 %13, label %.lr.ph45, label %.loopexit41

.lr.ph45:                                         ; preds = %4
  %14 = getelementptr inbounds nuw i8, ptr %3, i64 8
  %15 = zext nneg i32 %12 to i64
  %wide.trip.count54 = zext nneg i32 %12 to i64
  br label %16

.loopexit:                                        ; preds = %21, %16
  %indvars.iv.next = add nuw nsw i64 %indvars.iv, 1
  %exitcond55.not = icmp eq i64 %indvars.iv.next52, %wide.trip.count54
  br i1 %exitcond55.not, label %.loopexit41, label %16, !llvm.loop !33

16:                                               ; preds = %.lr.ph45, %.loopexit
  %indvars.iv51 = phi i64 [ 0, %.lr.ph45 ], [ %indvars.iv.next52, %.loopexit ]
  %indvars.iv = phi i64 [ 1, %.lr.ph45 ], [ %indvars.iv.next, %.loopexit ]
  %indvars.iv.next52 = add nuw nsw i64 %indvars.iv51, 1
  %17 = icmp samesign ult i64 %indvars.iv.next52, %15
  br i1 %17, label %.lr.ph, label %.loopexit

.lr.ph:                                           ; preds = %16
  %18 = load ptr, ptr %14, align 8
  %19 = getelementptr inbounds nuw i32, ptr %18, i64 %indvars.iv51
  %20 = load i32, ptr %19, align 4
  br label %22

21:                                               ; preds = %22
  %indvars.iv.next49 = add nuw nsw i64 %indvars.iv48, 1
  %exitcond.not = icmp eq i64 %indvars.iv.next49, %wide.trip.count54
  br i1 %exitcond.not, label %.loopexit, label %22, !llvm.loop !34

22:                                               ; preds = %.lr.ph, %21
  %indvars.iv48 = phi i64 [ %indvars.iv, %.lr.ph ], [ %indvars.iv.next49, %21 ]
  %23 = getelementptr inbounds nuw i32, ptr %18, i64 %indvars.iv48
  %24 = load i32, ptr %23, align 4
  %25 = or i32 %24, %20
  %26 = xor i32 %25, %10
  %27 = icmp eq i32 %26, -1
  br i1 %27, label %Dec_GraphAddNodeAnd.exit, label %21

Dec_GraphAddNodeAnd.exit:                         ; preds = %22
  %28 = and i32 %20, 2147483647
  %29 = xor i32 %28, 1
  %30 = and i32 %24, 2147483647
  %31 = xor i32 %30, 1
  %calloc.i = tail call dereferenceable_or_null(32) ptr @calloc(i64 1, i64 32)
  %32 = getelementptr inbounds nuw i8, ptr %calloc.i, i64 4
  store i32 2, ptr %32, align 4
  %33 = getelementptr inbounds nuw i8, ptr %calloc.i, i64 8
  %34 = getelementptr inbounds nuw i8, ptr %calloc.i, i64 12
  store i32 54, ptr %34, align 4
  %35 = tail call noalias dereferenceable_or_null(1296) ptr @malloc(i64 noundef 1296) #21
  %36 = getelementptr inbounds nuw i8, ptr %calloc.i, i64 16
  store ptr %35, ptr %36, align 8
  tail call void @llvm.memset.p0.i64(ptr noundef nonnull align 8 dereferenceable(48) %35, i8 0, i64 48, i1 false)
  %37 = getelementptr inbounds nuw i8, ptr %0, i64 56
  %38 = load ptr, ptr %37, align 8
  %39 = lshr i32 %28, 1
  %40 = getelementptr i8, ptr %38, i64 8
  %.val36 = load ptr, ptr %40, align 8
  %41 = zext nneg i32 %39 to i64
  %42 = getelementptr inbounds nuw ptr, ptr %.val36, i64 %41
  %43 = load ptr, ptr %42, align 8
  %44 = getelementptr inbounds nuw i8, ptr %35, i64 8
  store ptr %43, ptr %44, align 8
  %45 = lshr i32 %30, 1
  %.val = load ptr, ptr %40, align 8
  %46 = zext nneg i32 %45 to i64
  %47 = getelementptr inbounds nuw ptr, ptr %.val, i64 %46
  %48 = load ptr, ptr %47, align 8
  %49 = getelementptr inbounds nuw i8, ptr %35, i64 32
  store ptr %48, ptr %49, align 8
  store i32 3, ptr %33, align 8
  %50 = getelementptr inbounds nuw i8, ptr %35, i64 48
  %51 = getelementptr inbounds nuw i8, ptr %35, i64 56
  tail call void @llvm.memset.p0.i64(ptr noundef nonnull align 8 dereferenceable(24) %51, i8 0, i64 16, i1 false)
  store i32 %29, ptr %50, align 8
  %52 = getelementptr inbounds nuw i8, ptr %35, i64 52
  store i32 %31, ptr %52, align 4
  %53 = getelementptr inbounds nuw i8, ptr %35, i64 64
  %54 = shl i32 %29, 15
  %55 = and i32 %54, 32768
  %56 = shl i32 %31, 16
  %57 = and i32 %56, 65536
  %58 = or disjoint i32 %57, %55
  store i32 %58, ptr %53, align 8
  %59 = getelementptr inbounds nuw i8, ptr %calloc.i, i64 24
  store i32 4, ptr %59, align 8
  br label %.loopexit41

.loopexit41:                                      ; preds = %.loopexit, %4, %Dec_GraphAddNodeAnd.exit
  %.0 = phi ptr [ %calloc.i, %Dec_GraphAddNodeAnd.exit ], [ null, %4 ], [ null, %.loopexit ]
  ret ptr %.0
}